; Function Attrs: nounwind uwtable
define internal i32 @SpoolssEnumForms_r(ptr noundef %0, i32 noundef %1, ptr noundef %2, ptr noundef %3, ptr noundef initializes((88, 96)) %4, ptr noundef %5) #0 {
  %7 = alloca %struct.BUFFER, align 8
  %8 = alloca i32, align 4
  %9 = getelementptr inbounds nuw i8, ptr %4, i64 72
  %10 = load ptr, ptr %9, align 8
  %11 = getelementptr inbounds nuw i8, ptr %10, i64 72
  %12 = load ptr, ptr %11, align 8
  %13 = ptrtoint ptr %12 to i64
  %14 = trunc i64 %13 to i32
  %15 = load i32, ptr @hf_form, align 4
  %16 = tail call ptr @proto_tree_add_uint(ptr noundef %3, i32 noundef %15, ptr noundef %0, i32 noundef %1, i32 noundef 0, i32 noundef 1) #5
  %.not.i = icmp eq ptr %16, null
  br i1 %.not.i, label %proto_item_set_hidden.exit, label %17

17:                                               ; preds = %6
  %18 = getelementptr inbounds nuw i8, ptr %16, i64 32
  %19 = load ptr, ptr %18, align 8
  %.not5.i = icmp eq ptr %19, null
  br i1 %.not5.i, label %proto_item_set_hidden.exit, label %20

20:                                               ; preds = %17
  %21 = getelementptr inbounds nuw i8, ptr %19, i64 28
  %22 = load i32, ptr %21, align 4
  %23 = or i32 %22, 1
  store i32 %23, ptr %21, align 4
  br label %proto_item_set_hidden.exit

proto_item_set_hidden.exit:                       ; preds = %6, %17, %20
  call void @llvm.memset.p0.i64(ptr noundef nonnull align 8 dereferenceable(24) %7, i8 0, i64 24, i1 false)
  %24 = getelementptr inbounds nuw i8, ptr %4, i64 88
  store ptr %7, ptr %24, align 8
  %25 = call i32 @dissect_ndr_pointer(ptr noundef %0, i32 noundef %1, ptr noundef %2, ptr noundef %3, ptr noundef nonnull %4, ptr noundef %5, ptr noundef nonnull @dissect_spoolss_buffer_data, i32 noundef 2, ptr noundef nonnull @.str.435, i32 noundef -1) #5
  %26 = load i32, ptr @hf_needed, align 4
  %27 = call i32 @dissect_ndr_uint32(ptr noundef %0, i32 noundef %25, ptr noundef %2, ptr noundef %3, ptr noundef nonnull %4, ptr noundef %5, i32 noundef %26, ptr noundef null) #5
  %28 = getelementptr inbounds nuw i8, ptr %2, i64 8
  %29 = load ptr, ptr %28, align 8
  call void (ptr, i32, ptr, ...) @col_append_fstr(ptr noundef %29, i32 noundef 25, ptr noundef nonnull @.str.1206, i32 noundef %14) #5
  %30 = load i32, ptr @hf_enumforms_num, align 4
  %31 = call i32 @dissect_ndr_uint32(ptr noundef %0, i32 noundef %27, ptr noundef %2, ptr noundef %3, ptr noundef nonnull %4, ptr noundef %5, i32 noundef %30, ptr noundef nonnull %8) #5
  %32 = load i32, ptr %8, align 4
  %.not = icmp eq i32 %32, 0
  br i1 %.not, label %._crit_edge, label %.lr.ph

.lr.ph:                                           ; preds = %proto_item_set_hidden.exit
  %33 = getelementptr inbounds nuw i8, ptr %7, i64 8
  br label %34

34:                                               ; preds = %.lr.ph, %34
  %.043 = phi i32 [ 0, %.lr.ph ], [ %38, %34 ]
  %.04042 = phi i32 [ 0, %.lr.ph ], [ %37, %34 ]
  %35 = load ptr, ptr %7, align 8
  %36 = load ptr, ptr %33, align 8
  %37 = call fastcc i32 @dissect_FORM_REL(ptr noundef %35, i32 noundef %.04042, ptr noundef %2, ptr noundef %36, ptr noundef nonnull %4, ptr noundef %5, i32 noundef %.04042)
  %38 = add nuw i32 %.043, 1
  %39 = load i32, ptr %8, align 4
  %40 = icmp ult i32 %38, %39
  br i1 %40, label %34, label %._crit_edge, !llvm.loop !8

._crit_edge:                                      ; preds = %34, %proto_item_set_hidden.exit
  %41 = load i32, ptr @hf_rc, align 4
  %42 = call i32 @dissect_doserror(ptr noundef %0, i32 noundef %31, ptr noundef %2, ptr noundef %3, ptr noundef nonnull %4, ptr noundef %5, i32 noundef %41, ptr noundef null) #5
  ret i32 %42
}